; Function Attrs: nounwind sspstrong uwtable
define internal void @get_prop_pcielinkwidth(ptr noundef %obj, ptr noundef %v, ptr noundef %name, ptr noundef %opaque, ptr noundef %errp) #0 {
entry:
  %width = alloca i32, align 4
  %call = tail call ptr @object_field_prop_ptr(ptr noundef %obj, ptr noundef %opaque) #10
  %0 = load i32, ptr %call, align 4
  switch i32 %0, label %sw.default [
    i32 1, label %sw.epilog
    i32 2, label %sw.bb1
    i32 4, label %sw.bb2
    i32 8, label %sw.bb3
    i32 12, label %sw.bb4
    i32 16, label %sw.bb5
    i32 32, label %sw.bb6
  ]

sw.bb1:                                           ; preds = %entry
  br label %sw.epilog

sw.bb2:                                           ; preds = %entry
  br label %sw.epilog

sw.bb3:                                           ; preds = %entry
  br label %sw.epilog

sw.bb4:                                           ; preds = %entry
  br label %sw.epilog

sw.bb5:                                           ; preds = %entry
  br label %sw.epilog

sw.bb6:                                           ; preds = %entry
  br label %sw.epilog

sw.default:                                       ; preds = %entry
  tail call void @abort() #12
  unreachable

sw.epilog:                                        ; preds = %entry, %sw.bb6, %sw.bb5, %sw.bb4, %sw.bb3, %sw.bb2, %sw.bb1
  %.sink = phi i32 [ 6, %sw.bb6 ], [ 5, %sw.bb5 ], [ 4, %sw.bb4 ], [ 3, %sw.bb3 ], [ 2, %sw.bb2 ], [ 1, %sw.bb1 ], [ 0, %entry ]
  store i32 %.sink, ptr %width, align 4
  %info = getelementptr inbounds nuw i8, ptr %opaque, i64 8
  %1 = load ptr, ptr %info, align 8
  %enum_table = getelementptr inbounds nuw i8, ptr %1, i64 16
  %2 = load ptr, ptr %enum_table, align 8
  %call7 = call zeroext i1 @visit_type_enum(ptr noundef %v, ptr noundef %name, ptr noundef nonnull %width, ptr noundef %2, ptr noundef %errp) #10
  ret void
}